target datalayout = "e-m:e-p270:32:32-p271:32:32-p272:64:64-i64:64-i128:128-f80:128-n8:16:32:64-S128"
target triple = "x86_64-pc-linux-gnu"

%struct.InvalMessageArray = type { ptr, i32 }
%struct.RelFileLocator = type { i32, i32, i32 }
%struct.SharedInvalSmgrMsg = type { i8, i8, i16, %struct.RelFileLocator }
%struct.TransInvalidationInfo = type { %struct.InvalidationInfo, %struct.InvalidationMsgsGroup, ptr, i32 }
%struct.InvalidationInfo = type { %struct.InvalidationMsgsGroup, i8 }
%struct.InvalidationMsgsGroup = type { [2 x i32], [2 x i32] }
%union.SharedInvalidationMessage = type { %struct.SharedInvalSmgrMsg }
%struct.xl_xact_invals = type { i32, [0 x %union.SharedInvalidationMessage] }

@transInvalInfo = internal global ptr null, align 8
@InvalMessageArrays = internal global [2 x %struct.InvalMessageArray] zeroinitializer, align 16

; Function Attrs: nounwind uwtable
define dso_local void @LogLogicalInvalidations() #0 {
  %1 = alloca %struct.xl_xact_invals, align 4
  %2 = alloca ptr, align 8
  %3 = alloca i32, align 4
  %4 = alloca i32, align 4
  %5 = alloca i32, align 4
  %6 = alloca ptr, align 8
  %7 = alloca i32, align 4
  %8 = alloca ptr, align 8
  call void @llvm.lifetime.start.p0(i64 4, ptr %1) #7
  call void @llvm.lifetime.start.p0(i64 8, ptr %2) #7
  call void @llvm.lifetime.start.p0(i64 4, ptr %3) #7
  %9 = load ptr, ptr @transInvalInfo, align 8
  %10 = icmp eq ptr %9, null
  br i1 %10, label %11, label %12

11:                                               ; preds = %0
  store i32 1, ptr %4, align 4
  br label %98

12:                                               ; preds = %0
  %13 = load ptr, ptr @transInvalInfo, align 8
  %14 = getelementptr inbounds nuw %struct.TransInvalidationInfo, ptr %13, i32 0, i32 0
  %15 = getelementptr inbounds nuw %struct.InvalidationInfo, ptr %14, i32 0, i32 0
  store ptr %15, ptr %2, align 8
  %16 = load ptr, ptr %2, align 8
  %17 = getelementptr inbounds nuw %struct.InvalidationMsgsGroup, ptr %16, i32 0, i32 1
  %18 = getelementptr inbounds [2 x i32], ptr %17, i64 0, i64 0
  %19 = load i32, ptr %18, align 4
  %20 = load ptr, ptr %2, align 8
  %21 = getelementptr inbounds nuw %struct.InvalidationMsgsGroup, ptr %20, i32 0, i32 0
  %22 = getelementptr inbounds [2 x i32], ptr %21, i64 0, i64 0
  %23 = load i32, ptr %22, align 4
  %24 = sub i32 %19, %23
  %25 = load ptr, ptr %2, align 8
  %26 = getelementptr inbounds nuw %struct.InvalidationMsgsGroup, ptr %25, i32 0, i32 1
  %27 = getelementptr inbounds [2 x i32], ptr %26, i64 0, i64 1
  %28 = load i32, ptr %27, align 4
  %29 = load ptr, ptr %2, align 8
  %30 = getelementptr inbounds nuw %struct.InvalidationMsgsGroup, ptr %29, i32 0, i32 0
  %31 = getelementptr inbounds [2 x i32], ptr %30, i64 0, i64 1
  %32 = load i32, ptr %31, align 4
  %33 = sub i32 %28, %32
  %34 = add i32 %24, %33
  store i32 %34, ptr %3, align 4
  %35 = load i32, ptr %3, align 4
  %36 = icmp sgt i32 %35, 0
  br i1 %36, label %37, label %97

37:                                               ; preds = %12
  call void @llvm.memset.p0.i64(ptr align 4 %1, i8 0, i64 4, i1 false)
  %38 = load i32, ptr %3, align 4
  %39 = getelementptr inbounds nuw %struct.xl_xact_invals, ptr %1, i32 0, i32 0
  store i32 %38, ptr %39, align 4
  call void @XLogBeginInsert()
  call void @XLogRegisterData(ptr noundef %1, i32 noundef 4)
  br label %40

40:                                               ; preds = %37
  call void @llvm.lifetime.start.p0(i64 4, ptr %5) #7
  %41 = load ptr, ptr %2, align 8
  %42 = getelementptr inbounds nuw %struct.InvalidationMsgsGroup, ptr %41, i32 0, i32 1
  %43 = getelementptr inbounds [2 x i32], ptr %42, i64 0, i64 0
  %44 = load i32, ptr %43, align 4
  %45 = load ptr, ptr %2, align 8
  %46 = getelementptr inbounds nuw %struct.InvalidationMsgsGroup, ptr %45, i32 0, i32 0
  %47 = getelementptr inbounds [2 x i32], ptr %46, i64 0, i64 0
  %48 = load i32, ptr %47, align 4
  %49 = sub i32 %44, %48
  store i32 %49, ptr %5, align 4
  %50 = load i32, ptr %5, align 4
  %51 = icmp sgt i32 %50, 0
  br i1 %51, label %52, label %65

52:                                               ; preds = %40
  call void @llvm.lifetime.start.p0(i64 8, ptr %6) #7
  %53 = load ptr, ptr @InvalMessageArrays, align 16
  %54 = load ptr, ptr %2, align 8
  %55 = getelementptr inbounds nuw %struct.InvalidationMsgsGroup, ptr %54, i32 0, i32 0
  %56 = getelementptr inbounds [2 x i32], ptr %55, i64 0, i64 0
  %57 = load i32, ptr %56, align 4
  %58 = sext i32 %57 to i64
  %59 = getelementptr inbounds %union.SharedInvalidationMessage, ptr %53, i64 %58
  store ptr %59, ptr %6, align 8
  %60 = load ptr, ptr %6, align 8
  %61 = load i32, ptr %5, align 4
  %62 = sext i32 %61 to i64
  %63 = mul i64 %62, 16
  %64 = trunc i64 %63 to i32
  call void @XLogRegisterData(ptr noundef %60, i32 noundef %64)
  call void @llvm.lifetime.end.p0(i64 8, ptr %6) #7
  br label %65

65:                                               ; preds = %52, %40
  call void @llvm.lifetime.end.p0(i64 4, ptr %5) #7
  br label %66

66:                                               ; preds = %65
  br label %67

67:                                               ; preds = %66
  br label %68

68:                                               ; preds = %67
  call void @llvm.lifetime.start.p0(i64 4, ptr %7) #7
  %69 = load ptr, ptr %2, align 8
  %70 = getelementptr inbounds nuw %struct.InvalidationMsgsGroup, ptr %69, i32 0, i32 1
  %71 = getelementptr inbounds [2 x i32], ptr %70, i64 0, i64 1
  %72 = load i32, ptr %71, align 4
  %73 = load ptr, ptr %2, align 8
  %74 = getelementptr inbounds nuw %struct.InvalidationMsgsGroup, ptr %73, i32 0, i32 0
  %75 = getelementptr inbounds [2 x i32], ptr %74, i64 0, i64 1
  %76 = load i32, ptr %75, align 4
  %77 = sub i32 %72, %76
  store i32 %77, ptr %7, align 4
  %78 = load i32, ptr %7, align 4
  %79 = icmp sgt i32 %78, 0
  br i1 %79, label %80, label %93

80:                                               ; preds = %68
  call void @llvm.lifetime.start.p0(i64 8, ptr %8) #7
  %81 = load ptr, ptr getelementptr inbounds ([2 x %struct.InvalMessageArray], ptr @InvalMessageArrays, i64 0, i64 1), align 16
  %82 = load ptr, ptr %2, align 8
  %83 = getelementptr inbounds nuw %struct.InvalidationMsgsGroup, ptr %82, i32 0, i32 0
  %84 = getelementptr inbounds [2 x i32], ptr %83, i64 0, i64 1
  %85 = load i32, ptr %84, align 4
  %86 = sext i32 %85 to i64
  %87 = getelementptr inbounds %union.SharedInvalidationMessage, ptr %81, i64 %86
  store ptr %87, ptr %8, align 8
  %88 = load ptr, ptr %8, align 8
  %89 = load i32, ptr %7, align 4
  %90 = sext i32 %89 to i64
  %91 = mul i64 %90, 16
  %92 = trunc i64 %91 to i32
  call void @XLogRegisterData(ptr noundef %88, i32 noundef %92)
  call void @llvm.lifetime.end.p0(i64 8, ptr %8) #7
  br label %93

93:                                               ; preds = %80, %68
  call void @llvm.lifetime.end.p0(i64 4, ptr %7) #7
  br label %94

94:                                               ; preds = %93
  br label %95

95:                                               ; preds = %94
  %96 = call i64 @XLogInsert(i8 noundef zeroext 1, i8 noundef zeroext 96)
  br label %97

97:                                               ; preds = %95, %12
  store i32 0, ptr %4, align 4
  br label %98

98:                                               ; preds = %97, %11
  call void @llvm.lifetime.end.p0(i64 4, ptr %3) #7
  call void @llvm.lifetime.end.p0(i64 8, ptr %2) #7
  call void @llvm.lifetime.end.p0(i64 4, ptr %1) #7
  %99 = load i32, ptr %4, align 4
  switch i32 %99, label %101 [
    i32 0, label %100
    i32 1, label %100
  ]

100:                                              ; preds = %98, %98
  ret void

101:                                              ; preds = %98
  unreachable
}