; Function Attrs: nounwind uwtable
define dso_local void @LogLogicalInvalidations() local_unnamed_addr #0 {
  %1 = alloca %struct.xl_xact_invals, align 4
  call void @llvm.lifetime.start.p0(i64 4, ptr nonnull %1) #7
  %2 = load ptr, ptr @transInvalInfo, align 8
  %3 = icmp eq ptr %2, null
  br i1 %3, label %38, label %4

4:                                                ; preds = %0
  %5 = getelementptr inbounds nuw i8, ptr %2, i64 8
  %6 = load i32, ptr %5, align 4
  %7 = load i32, ptr %2, align 4
  %8 = sub i32 %6, %7
  %9 = getelementptr inbounds nuw i8, ptr %2, i64 12
  %10 = load i32, ptr %9, align 4
  %11 = getelementptr inbounds nuw i8, ptr %2, i64 4
  %12 = load i32, ptr %11, align 4
  %13 = sub i32 %10, %12
  %14 = add i32 %13, %8
  %15 = icmp sgt i32 %14, 0
  br i1 %15, label %16, label %38

16:                                               ; preds = %4
  store i32 %14, ptr %1, align 4
  tail call void @XLogBeginInsert() #7
  call void @XLogRegisterData(ptr noundef nonnull %1, i32 noundef 4) #7
  %17 = load i32, ptr %5, align 4
  %18 = load i32, ptr %2, align 4
  %19 = sub i32 %17, %18
  %20 = icmp sgt i32 %19, 0
  br i1 %20, label %21, label %26

21:                                               ; preds = %16
  %22 = load ptr, ptr @InvalMessageArrays.0, align 16
  %23 = sext i32 %18 to i64
  %24 = getelementptr inbounds %union.SharedInvalidationMessage, ptr %22, i64 %23
  %25 = shl i32 %19, 4
  call void @XLogRegisterData(ptr noundef %24, i32 noundef %25) #7
  br label %26

26:                                               ; preds = %21, %16
  %27 = load i32, ptr %9, align 4
  %28 = load i32, ptr %11, align 4
  %29 = sub i32 %27, %28
  %30 = icmp sgt i32 %29, 0
  br i1 %30, label %31, label %36

31:                                               ; preds = %26
  %32 = load ptr, ptr @InvalMessageArrays.2, align 16
  %33 = sext i32 %28 to i64
  %34 = getelementptr inbounds %union.SharedInvalidationMessage, ptr %32, i64 %33
  %35 = shl i32 %29, 4
  call void @XLogRegisterData(ptr noundef %34, i32 noundef %35) #7
  br label %36

36:                                               ; preds = %31, %26
  %37 = call i64 @XLogInsert(i8 noundef zeroext 1, i8 noundef zeroext 96) #7
  br label %38

38:                                               ; preds = %4, %36, %0
  call void @llvm.lifetime.end.p0(i64 4, ptr nonnull %1) #7
  ret void
}